	.file	"test_asm.cc"
# GNU C++14 (Ubuntu 7.5.0-3ubuntu1~18.04) version 7.5.0 (x86_64-linux-gnu)
#	compiled by GNU C version 7.5.0, GMP version 6.1.2, MPFR version 4.0.1, MPC version 1.1.0, isl version isl-0.19-GMP

# GGC heuristics: --param ggc-min-expand=100 --param ggc-min-heapsize=131072
# options passed:  -imultiarch x86_64-linux-gnu -D_GNU_SOURCE test_asm.cc
# -mtune=generic -march=x86-64 -g -O2 -fverbose-asm
# -fstack-protector-strong -Wformat -Wformat-security
# options enabled:  -fPIC -fPIE -faggressive-loop-optimizations
# -falign-labels -fasynchronous-unwind-tables -fauto-inc-dec
# -fbranch-count-reg -fcaller-saves -fchkp-check-incomplete-type
# -fchkp-check-read -fchkp-check-write -fchkp-instrument-calls
# -fchkp-narrow-bounds -fchkp-optimize -fchkp-store-bounds
# -fchkp-use-static-bounds -fchkp-use-static-const-bounds
# -fchkp-use-wrappers -fcode-hoisting -fcombine-stack-adjustments -fcommon
# -fcompare-elim -fcprop-registers -fcrossjumping -fcse-follow-jumps
# -fdefer-pop -fdelete-null-pointer-checks -fdevirtualize
# -fdevirtualize-speculatively -fdwarf2-cfi-asm -fearly-inlining
# -feliminate-unused-debug-types -fexceptions -fexpensive-optimizations
# -fforward-propagate -ffp-int-builtin-inexact -ffunction-cse -fgcse
# -fgcse-lm -fgnu-runtime -fgnu-unique -fguess-branch-probability
# -fhoist-adjacent-loads -fident -fif-conversion -fif-conversion2
# -findirect-inlining -finline -finline-atomics
# -finline-functions-called-once -finline-small-functions -fipa-bit-cp
# -fipa-cp -fipa-icf -fipa-icf-functions -fipa-icf-variables -fipa-profile
# -fipa-pure-const -fipa-ra -fipa-reference -fipa-sra -fipa-vrp
# -fira-hoist-pressure -fira-share-save-slots -fira-share-spill-slots
# -fisolate-erroneous-paths-dereference -fivopts -fkeep-static-consts
# -fleading-underscore -flifetime-dse -flra-remat -flto-odr-type-merging
# -fmath-errno -fmerge-constants -fmerge-debug-strings
# -fmove-loop-invariants -fomit-frame-pointer -foptimize-sibling-calls
# -foptimize-strlen -fpartial-inlining -fpeephole -fpeephole2 -fplt
# -fprefetch-loop-arrays -free -freg-struct-return -freorder-blocks
# -freorder-functions -frerun-cse-after-loop
# -fsched-critical-path-heuristic -fsched-dep-count-heuristic
# -fsched-group-heuristic -fsched-interblock -fsched-last-insn-heuristic
# -fsched-rank-heuristic -fsched-spec -fsched-spec-insn-heuristic
# -fsched-stalled-insns-dep -fschedule-fusion -fschedule-insns2
# -fsemantic-interposition -fshow-column -fshrink-wrap
# -fshrink-wrap-separate -fsigned-zeros -fsplit-ivs-in-unroller
# -fsplit-wide-types -fssa-backprop -fssa-phiopt -fstack-protector-strong
# -fstdarg-opt -fstore-merging -fstrict-aliasing -fstrict-overflow
# -fstrict-volatile-bitfields -fsync-libcalls -fthread-jumps
# -ftoplevel-reorder -ftrapping-math -ftree-bit-ccp -ftree-builtin-call-dce
# -ftree-ccp -ftree-ch -ftree-coalesce-vars -ftree-copy-prop -ftree-cselim
# -ftree-dce -ftree-dominator-opts -ftree-dse -ftree-forwprop -ftree-fre
# -ftree-loop-if-convert -ftree-loop-im -ftree-loop-ivcanon
# -ftree-loop-optimize -ftree-parallelize-loops= -ftree-phiprop -ftree-pre
# -ftree-pta -ftree-reassoc -ftree-scev-cprop -ftree-sink -ftree-slsr
# -ftree-sra -ftree-switch-conversion -ftree-tail-merge -ftree-ter
# -ftree-vrp -funit-at-a-time -funwind-tables -fvar-tracking
# -fvar-tracking-assignments -fverbose-asm -fzero-initialized-in-bss
# -m128bit-long-double -m64 -m80387 -malign-stringops
# -mavx256-split-unaligned-load -mavx256-split-unaligned-store
# -mfancy-math-387 -mfp-ret-in-387 -mfxsr -mglibc -mieee-fp
# -mlong-double-80 -mmmx -mno-sse4 -mpush-args -mred-zone -msse -msse2
# -mstv -mtls-direct-seg-refs -mvzeroupper

	.text
.Ltext0:
	.section	.text.startup,"ax",@progbits
	.p2align 4,,15
	.globl	main
	.type	main, @function
main:
.LFB1564:
	.file 1 "test_asm.cc"
	.loc 1 6 0
	.cfi_startproc
	subq	$24, %rsp	#,
	.cfi_def_cfa_offset 32
.LBB16:
.LBB17:
# /usr/include/c++/7/istream:187:       { return _M_extract(__n); }
	.file 2 "/usr/include/c++/7/istream"
	.loc 2 187 0
	leaq	_ZSt3cin(%rip), %rdi	#,
	movq	%rsp, %rsi	#, tmp91
.LBE17:
.LBE16:
# test_asm.cc:7:   int64_t input = 0;
	.loc 1 7 0
	movq	$0, (%rsp)	#, input
.LVL0:
# test_asm.cc:6: int main(){
	.loc 1 6 0
	movq	%fs:40, %rax	#, tmp94
	movq	%rax, 8(%rsp)	# tmp94, D.41012
	xorl	%eax, %eax	# tmp94
.LBB19:
.LBB18:
# /usr/include/c++/7/istream:187:       { return _M_extract(__n); }
	.loc 2 187 0
	call	_ZNSi10_M_extractIlEERSiRT_@PLT	#
.LVL1:
.LBE18:
.LBE19:
# test_asm.cc:9:   std::cout << fibo(input) << std::endl;
	.loc 1 9 0
	movq	(%rsp), %rdi	# input,
	call	_Z4fibol@PLT	#
.LVL2:
.LBB20:
.LBB21:
# /usr/include/c++/7/ostream:167:       { return _M_insert(__n); }
	.file 3 "/usr/include/c++/7/ostream"
	.loc 3 167 0
	leaq	_ZSt4cout(%rip), %rdi	#,
	movq	%rax, %rsi	# _5,
	call	_ZNSo9_M_insertIlEERSoT_@PLT	#
.LVL3:
.LBE21:
.LBE20:
.LBB22:
.LBB23:
# /usr/include/c++/7/ostream:113: 	return __pf(*this);
	.loc 3 113 0
	movq	%rax, %rdi	# _7,
	call	_ZSt4endlIcSt11char_traitsIcEERSt13basic_ostreamIT_T0_ES6_@PLT	#
.LVL4:
.LBE23:
.LBE22:
# test_asm.cc:10: }
	.loc 1 10 0
	movq	8(%rsp), %rdx	# D.41012, tmp95
	xorq	%fs:40, %rdx	#, tmp95
	jne	.L5	#,
	xorl	%eax, %eax	#
	addq	$24, %rsp	#,
	.cfi_remember_state
	.cfi_def_cfa_offset 8
	ret
.L5:
	.cfi_restore_state
	call	__stack_chk_fail@PLT	#
.LVL5:
	.cfi_endproc
.LFE1564:
	.size	main, .-main
	.p2align 4,,15
	.type	_GLOBAL__sub_I_main, @function
_GLOBAL__sub_I_main:
.LFB2052:
	.loc 1 10 0
	.cfi_startproc
.LVL6:
.LBB24:
.LBB25:
# /usr/include/c++/7/iostream:74:   static ios_base::Init __ioinit;
	.file 4 "/usr/include/c++/7/iostream"
	.loc 4 74 0
	leaq	_ZStL8__ioinit(%rip), %rdi	#,
.LBE25:
.LBE24:
# test_asm.cc:10: }
	.loc 1 10 0
	subq	$8, %rsp	#,
	.cfi_def_cfa_offset 16
.LBB28:
.LBB26:
# /usr/include/c++/7/iostream:74:   static ios_base::Init __ioinit;
	.loc 4 74 0
	call	_ZNSt8ios_base4InitC1Ev@PLT	#
.LVL7:
	movq	_ZNSt8ios_base4InitD1Ev@GOTPCREL(%rip), %rdi	#,
	leaq	__dso_handle(%rip), %rdx	#,
	leaq	_ZStL8__ioinit(%rip), %rsi	#,
.LBE26:
.LBE28:
# test_asm.cc:10: }
	.loc 1 10 0
	addq	$8, %rsp	#,
	.cfi_def_cfa_offset 8
.LBB29:
.LBB27:
# /usr/include/c++/7/iostream:74:   static ios_base::Init __ioinit;
	.loc 4 74 0
	jmp	__cxa_atexit@PLT	#
.LVL8:
.LBE27:
.LBE29:
	.cfi_endproc
.LFE2052:
	.size	_GLOBAL__sub_I_main, .-_GLOBAL__sub_I_main
	.section	.init_array,"aw"
	.align 8
	.quad	_GLOBAL__sub_I_main
	.local	_ZStL8__ioinit
	.comm	_ZStL8__ioinit,1,1
	.text
.Letext0:
	.file 5 "/usr/include/c++/7/cwchar"
	.file 6 "/usr/include/c++/7/new"
	.file 7 "/usr/include/c++/7/bits/exception_ptr.h"
	.file 8 "/usr/include/c++/7/type_traits"
	.file 9 "/usr/include/x86_64-linux-gnu/c++/7/bits/c++config.h"
	.file 10 "/usr/include/c++/7/bits/stl_pair.h"
	.file 11 "/usr/include/c++/7/debug/debug.h"
	.file 12 "/usr/include/c++/7/bits/char_traits.h"
	.file 13 "/usr/include/c++/7/cstdint"
	.file 14 "/usr/include/c++/7/clocale"
	.file 15 "/usr/include/c++/7/cstdlib"
	.file 16 "/usr/include/c++/7/cstdio"
	.file 17 "/usr/include/c++/7/bits/basic_string.h"
	.file 18 "/usr/include/c++/7/system_error"
	.file 19 "/usr/include/c++/7/bits/ios_base.h"
	.file 20 "/usr/include/c++/7/cwctype"
	.file 21 "/usr/include/c++/7/bits/ostream.tcc"
	.file 22 "/usr/include/c++/7/bits/istream.tcc"
	.file 23 "/usr/include/c++/7/bits/locale_facets.h"
	.file 24 "/usr/include/c++/7/iosfwd"
	.file 25 "/usr/include/c++/7/bits/basic_ios.h"
	.file 26 "/usr/include/c++/7/bits/predefined_ops.h"
	.file 27 "/usr/include/c++/7/ext/new_allocator.h"
	.file 28 "/usr/include/c++/7/ext/numeric_traits.h"
	.file 29 "/usr/lib/gcc/x86_64-linux-gnu/7/include/stddef.h"
	.file 30 "<built-in>"
	.file 31 "/usr/include/x86_64-linux-gnu/bits/types/wint_t.h"
	.file 32 "/usr/include/x86_64-linux-gnu/bits/types/__mbstate_t.h"
	.file 33 "/usr/include/x86_64-linux-gnu/bits/types/mbstate_t.h"
	.file 34 "/usr/include/x86_64-linux-gnu/bits/types/__FILE.h"
	.file 35 "/usr/include/x86_64-linux-gnu/bits/libio.h"
	.file 36 "/usr/include/x86_64-linux-gnu/bits/types/FILE.h"
	.file 37 "/usr/include/wchar.h"
	.file 38 "/usr/include/x86_64-linux-gnu/bits/wchar2.h"
	.file 39 "/usr/include/x86_64-linux-gnu/bits/types/struct_tm.h"
	.file 40 "/usr/include/x86_64-linux-gnu/bits/types.h"
	.file 41 "/usr/include/x86_64-linux-gnu/bits/stdint-intn.h"
	.file 42 "/usr/include/x86_64-linux-gnu/bits/stdint-uintn.h"
	.file 43 "/usr/include/stdint.h"
	.file 44 "/usr/include/locale.h"
	.file 45 "/usr/include/time.h"
	.file 46 "/usr/include/x86_64-linux-gnu/c++/7/bits/atomic_word.h"
	.file 47 "/usr/include/stdlib.h"
	.file 48 "/usr/include/x86_64-linux-gnu/bits/stdlib-float.h"
	.file 49 "/usr/include/x86_64-linux-gnu/bits/stdlib-bsearch.h"
	.file 50 "/usr/include/x86_64-linux-gnu/bits/stdlib.h"
	.file 51 "/usr/include/x86_64-linux-gnu/bits/_G_config.h"
	.file 52 "/usr/include/stdio.h"
	.file 53 "/usr/include/x86_64-linux-gnu/bits/sys_errlist.h"
	.file 54 "/usr/include/x86_64-linux-gnu/bits/stdio2.h"
	.file 55 "/usr/include/x86_64-linux-gnu/bits/stdio.h"
	.file 56 "/usr/include/errno.h"
	.file 57 "/usr/include/x86_64-linux-gnu/bits/wctype-wchar.h"
	.file 58 "/usr/include/wctype.h"
	.section	.note.GNU-stack,"",@progbits
